target datalayout = "e-m:e-p270:32:32-p271:32:32-p272:64:64-i64:64-i128:128-f80:128-n8:16:32:64-S128"
target triple = "x86_64-pc-linux-gnu"

%"class.llvm::StringRef" = type { ptr, i64 }

; Function Attrs: mustprogress nounwind uwtable
define linkonce_odr hidden noundef ptr @_ZNK4llvm9StringRef4dataEv(ptr noundef nonnull align 8 dereferenceable(16) %0) #0 comdat align 2 {
  %2 = alloca ptr, align 8
  store ptr %0, ptr %2, align 8
  %3 = load ptr, ptr %2, align 8
  %4 = getelementptr inbounds nuw %"class.llvm::StringRef", ptr %3, i32 0, i32 0
  %5 = load ptr, ptr %4, align 8
  ret ptr %5
}

; Function Attrs: mustprogress nounwind uwtable
define linkonce_odr hidden noundef ptr @_ZNK4llvm9StringRef3endEv(ptr noundef nonnull align 8 dereferenceable(16) %0) #0 comdat align 2 {
  %2 = alloca ptr, align 8
  store ptr %0, ptr %2, align 8
  %3 = load ptr, ptr %2, align 8
  %4 = getelementptr inbounds nuw %"class.llvm::StringRef", ptr %3, i32 0, i32 0
  %5 = load ptr, ptr %4, align 8
  %6 = getelementptr inbounds nuw %"class.llvm::StringRef", ptr %3, i32 0, i32 1
  %7 = load i64, ptr %6, align 8
  %8 = getelementptr inbounds i8, ptr %5, i64 %7
  ret ptr %8
}

; Function Attrs: mustprogress nounwind uwtable
define linkonce_odr hidden noundef ptr @_ZNK4llvm9StringRef5beginEv(ptr noundef nonnull align 8 dereferenceable(16) %0) #0 comdat align 2 {
  %2 = alloca ptr, align 8
  store ptr %0, ptr %2, align 8
  %3 = load ptr, ptr %2, align 8
  %4 = getelementptr inbounds nuw %"class.llvm::StringRef", ptr %3, i32 0, i32 0
  %5 = load ptr, ptr %4, align 8
  ret ptr %5
}

; Function Attrs: mustprogress nounwind uwtable
define dso_local noundef zeroext i1 @_ZN4llvm17ConvertUTF8toWideEjNS_9StringRefERPcRPKh(i32 noundef %0, ptr %1, i64 %2, ptr noundef nonnull align 8 dereferenceable(8) %3, ptr noundef nonnull align 8 dereferenceable(8) %4) #0 {
  %6 = alloca %"class.llvm::StringRef", align 8
  %7 = alloca i32, align 4
  %8 = alloca ptr, align 8
  %9 = alloca ptr, align 8
  %10 = alloca i32, align 4
  %11 = alloca ptr, align 8
  %12 = alloca ptr, align 8
  %13 = alloca ptr, align 8
  %14 = alloca i32, align 4
  %15 = alloca ptr, align 8
  %16 = alloca ptr, align 8
  %17 = alloca i32, align 4
  %18 = getelementptr inbounds nuw { ptr, i64 }, ptr %6, i32 0, i32 0
  store ptr %1, ptr %18, align 8
  %19 = getelementptr inbounds nuw { ptr, i64 }, ptr %6, i32 0, i32 1
  store i64 %2, ptr %19, align 8
  store i32 %0, ptr %7, align 4
  store ptr %3, ptr %8, align 8
  store ptr %4, ptr %9, align 8
  store i32 0, ptr %10, align 4
  %20 = load i32, ptr %7, align 4
  %21 = icmp eq i32 %20, 1
  br i1 %21, label %22, label %40

22:                                               ; preds = %5
  %23 = call noundef ptr @_ZNK4llvm9StringRef5beginEv(ptr noundef nonnull align 8 dereferenceable(16) %6)
  store ptr %23, ptr %11, align 8
  %24 = call noundef ptr @_ZNK4llvm9StringRef3endEv(ptr noundef nonnull align 8 dereferenceable(16) %6)
  %25 = call noundef zeroext i8 @_ZN4llvm17isLegalUTF8StringEPPKhS1_(ptr noundef %11, ptr noundef %24)
  %26 = icmp ne i8 %25, 0
  br i1 %26, label %30, label %27

27:                                               ; preds = %22
  store i32 3, ptr %10, align 4
  %28 = load ptr, ptr %11, align 8
  %29 = load ptr, ptr %9, align 8
  store ptr %28, ptr %29, align 8
  br label %39

30:                                               ; preds = %22
  %31 = load ptr, ptr %8, align 8
  %32 = load ptr, ptr %31, align 8
  %33 = call noundef ptr @_ZNK4llvm9StringRef4dataEv(ptr noundef nonnull align 8 dereferenceable(16) %6)
  %34 = call noundef i64 @_ZNK4llvm9StringRef4sizeEv(ptr noundef nonnull align 8 dereferenceable(16) %6)
  call void @llvm.memcpy.p0.p0.i64(ptr align 1 %32, ptr align 1 %33, i64 %34, i1 false)
  %35 = call noundef i64 @_ZNK4llvm9StringRef4sizeEv(ptr noundef nonnull align 8 dereferenceable(16) %6)
  %36 = load ptr, ptr %8, align 8
  %37 = load ptr, ptr %36, align 8
  %38 = getelementptr inbounds i8, ptr %37, i64 %35
  store ptr %38, ptr %36, align 8
  br label %39

39:                                               ; preds = %30, %27
  br label %90

40:                                               ; preds = %5
  %41 = load i32, ptr %7, align 4
  %42 = icmp eq i32 %41, 2
  br i1 %42, label %43, label %64

43:                                               ; preds = %40
  %44 = call noundef ptr @_ZNK4llvm9StringRef4dataEv(ptr noundef nonnull align 8 dereferenceable(16) %6)
  store ptr %44, ptr %12, align 8
  %45 = load ptr, ptr %8, align 8
  %46 = load ptr, ptr %45, align 8
  store ptr %46, ptr %13, align 8
  store i32 0, ptr %14, align 4
  %47 = load ptr, ptr %12, align 8
  %48 = call noundef i64 @_ZNK4llvm9StringRef4sizeEv(ptr noundef nonnull align 8 dereferenceable(16) %6)
  %49 = getelementptr inbounds i8, ptr %47, i64 %48
  %50 = load ptr, ptr %13, align 8
  %51 = call noundef i64 @_ZNK4llvm9StringRef4sizeEv(ptr noundef nonnull align 8 dereferenceable(16) %6)
  %52 = getelementptr inbounds i16, ptr %50, i64 %51
  %53 = load i32, ptr %14, align 4
  %54 = call noundef i32 @_ZN4llvm18ConvertUTF8toUTF16EPPKhS1_PPtS3_NS_15ConversionFlagsE(ptr noundef %12, ptr noundef %49, ptr noundef %13, ptr noundef %52, i32 noundef %53)
  store i32 %54, ptr %10, align 4
  %55 = load i32, ptr %10, align 4
  %56 = icmp eq i32 %55, 0
  br i1 %56, label %57, label %60

57:                                               ; preds = %43
  %58 = load ptr, ptr %13, align 8
  %59 = load ptr, ptr %8, align 8
  store ptr %58, ptr %59, align 8
  br label %63

60:                                               ; preds = %43
  %61 = load ptr, ptr %12, align 8
  %62 = load ptr, ptr %9, align 8
  store ptr %61, ptr %62, align 8
  br label %63

63:                                               ; preds = %60, %57
  br label %89

64:                                               ; preds = %40
  %65 = load i32, ptr %7, align 4
  %66 = icmp eq i32 %65, 4
  br i1 %66, label %67, label %88

67:                                               ; preds = %64
  %68 = call noundef ptr @_ZNK4llvm9StringRef4dataEv(ptr noundef nonnull align 8 dereferenceable(16) %6)
  store ptr %68, ptr %15, align 8
  %69 = load ptr, ptr %8, align 8
  %70 = load ptr, ptr %69, align 8
  store ptr %70, ptr %16, align 8
  store i32 0, ptr %17, align 4
  %71 = load ptr, ptr %15, align 8
  %72 = call noundef i64 @_ZNK4llvm9StringRef4sizeEv(ptr noundef nonnull align 8 dereferenceable(16) %6)
  %73 = getelementptr inbounds i8, ptr %71, i64 %72
  %74 = load ptr, ptr %16, align 8
  %75 = call noundef i64 @_ZNK4llvm9StringRef4sizeEv(ptr noundef nonnull align 8 dereferenceable(16) %6)
  %76 = getelementptr inbounds i32, ptr %74, i64 %75
  %77 = load i32, ptr %17, align 4
  %78 = call noundef i32 @_ZN4llvm18ConvertUTF8toUTF32EPPKhS1_PPjS3_NS_15ConversionFlagsE(ptr noundef %15, ptr noundef %73, ptr noundef %16, ptr noundef %76, i32 noundef %77)
  store i32 %78, ptr %10, align 4
  %79 = load i32, ptr %10, align 4
  %80 = icmp eq i32 %79, 0
  br i1 %80, label %81, label %84

81:                                               ; preds = %67
  %82 = load ptr, ptr %16, align 8
  %83 = load ptr, ptr %8, align 8
  store ptr %82, ptr %83, align 8
  br label %87

84:                                               ; preds = %67
  %85 = load ptr, ptr %15, align 8
  %86 = load ptr, ptr %9, align 8
  store ptr %85, ptr %86, align 8
  br label %87

87:                                               ; preds = %84, %81
  br label %88

88:                                               ; preds = %87, %64
  br label %89

89:                                               ; preds = %88, %63
  br label %90

90:                                               ; preds = %89, %39
  %91 = load i32, ptr %10, align 4
  %92 = icmp eq i32 %91, 0
  ret i1 %92
}

; Function Attrs: mustprogress nounwind uwtable
define linkonce_odr hidden noundef i64 @_ZNK4llvm9StringRef4sizeEv(ptr noundef nonnull align 8 dereferenceable(16) %0) #0 comdat align 2 {
  %2 = alloca ptr, align 8
  store ptr %0, ptr %2, align 8
  %3 = load ptr, ptr %2, align 8
  %4 = getelementptr inbounds nuw %"class.llvm::StringRef", ptr %3, i32 0, i32 1
  %5 = load i64, ptr %4, align 8
  ret i64 %5
}

; Function Attrs: mustprogress nounwind uwtable
define internal noundef zeroext i1 @_ZN4llvmL25ConvertUTF8toWideInternalINSt7__cxx1112basic_stringIwSt11char_traitsIwESaIwEEEEEbNS_9StringRefERT_(ptr %0, i64 %1, ptr noundef nonnull align 8 dereferenceable(32) %2) #0 {
  %4 = alloca i1, align 1
  %5 = alloca %"class.llvm::StringRef", align 8
  %6 = alloca ptr, align 8
  %7 = alloca ptr, align 8
  %8 = alloca ptr, align 8
  %9 = alloca %"class.llvm::StringRef", align 8
  %10 = getelementptr inbounds nuw { ptr, i64 }, ptr %5, i32 0, i32 0
  store ptr %0, ptr %10, align 8
  %11 = getelementptr inbounds nuw { ptr, i64 }, ptr %5, i32 0, i32 1
  store i64 %1, ptr %11, align 8
  store ptr %2, ptr %6, align 8
  %12 = load ptr, ptr %6, align 8
  %13 = call noundef i64 @_ZNK4llvm9StringRef4sizeEv(ptr noundef nonnull align 8 dereferenceable(16) %5)
  %14 = add i64 %13, 1
  call void @_ZNSt7__cxx1112basic_stringIwSt11char_traitsIwESaIwEE6resizeEm(ptr noundef nonnull align 8 dereferenceable(32) %12, i64 noundef %14)
  %15 = load ptr, ptr %6, align 8
  %16 = call noundef nonnull align 4 dereferenceable(4) ptr @_ZNSt7__cxx1112basic_stringIwSt11char_traitsIwESaIwEEixEm(ptr noundef nonnull align 8 dereferenceable(32) %15, i64 noundef 0)
  store ptr %16, ptr %7, align 8
  call void @llvm.memcpy.p0.p0.i64(ptr align 8 %9, ptr align 8 %5, i64 16, i1 false)
  %17 = getelementptr inbounds nuw { ptr, i64 }, ptr %9, i32 0, i32 0
  %18 = load ptr, ptr %17, align 8
  %19 = getelementptr inbounds nuw { ptr, i64 }, ptr %9, i32 0, i32 1
  %20 = load i64, ptr %19, align 8
  %21 = call noundef zeroext i1 @_ZN4llvm17ConvertUTF8toWideEjNS_9StringRefERPcRPKh(i32 noundef 4, ptr %18, i64 %20, ptr noundef nonnull align 8 dereferenceable(8) %7, ptr noundef nonnull align 8 dereferenceable(8) %8)
  br i1 %21, label %24, label %22

22:                                               ; preds = %3
  %23 = load ptr, ptr %6, align 8
  call void @_ZNSt7__cxx1112basic_stringIwSt11char_traitsIwESaIwEE5clearEv(ptr noundef nonnull align 8 dereferenceable(32) %23) #9
  store i1 false, ptr %4, align 1
  br label %33

24:                                               ; preds = %3
  %25 = load ptr, ptr %6, align 8
  %26 = load ptr, ptr %7, align 8
  %27 = load ptr, ptr %6, align 8
  %28 = call noundef nonnull align 4 dereferenceable(4) ptr @_ZNSt7__cxx1112basic_stringIwSt11char_traitsIwESaIwEEixEm(ptr noundef nonnull align 8 dereferenceable(32) %27, i64 noundef 0)
  %29 = ptrtoint ptr %26 to i64
  %30 = ptrtoint ptr %28 to i64
  %31 = sub i64 %29, %30
  %32 = sdiv exact i64 %31, 4
  call void @_ZNSt7__cxx1112basic_stringIwSt11char_traitsIwESaIwEE6resizeEm(ptr noundef nonnull align 8 dereferenceable(32) %25, i64 noundef %32)
  store i1 true, ptr %4, align 1
  br label %33

33:                                               ; preds = %24, %22
  %34 = load i1, ptr %4, align 1
  ret i1 %34
}

; Function Attrs: mustprogress nounwind uwtable
define dso_local noundef zeroext i1 @_ZN4llvm17ConvertUTF8toWideENS_9StringRefERNSt7__cxx1112basic_stringIwSt11char_traitsIwESaIwEEE(ptr %0, i64 %1, ptr noundef nonnull align 8 dereferenceable(32) %2) #0 {
  %4 = alloca %"class.llvm::StringRef", align 8
  %5 = alloca ptr, align 8
  %6 = alloca %"class.llvm::StringRef", align 8
  %7 = getelementptr inbounds nuw { ptr, i64 }, ptr %4, i32 0, i32 0
  store ptr %0, ptr %7, align 8
  %8 = getelementptr inbounds nuw { ptr, i64 }, ptr %4, i32 0, i32 1
  store i64 %1, ptr %8, align 8
  store ptr %2, ptr %5, align 8
  call void @llvm.memcpy.p0.p0.i64(ptr align 8 %6, ptr align 8 %4, i64 16, i1 false)
  %9 = load ptr, ptr %5, align 8
  %10 = getelementptr inbounds nuw { ptr, i64 }, ptr %6, i32 0, i32 0
  %11 = load ptr, ptr %10, align 8
  %12 = getelementptr inbounds nuw { ptr, i64 }, ptr %6, i32 0, i32 1
  %13 = load i64, ptr %12, align 8
  %14 = call noundef zeroext i1 @_ZN4llvmL25ConvertUTF8toWideInternalINSt7__cxx1112basic_stringIwSt11char_traitsIwESaIwEEEEEbNS_9StringRefERT_(ptr %11, i64 %13, ptr noundef nonnull align 8 dereferenceable(32) %9)
  ret i1 %14
}