; Function Attrs: mustprogress nounwind uwtable
define dso_local noundef zeroext i1 @_ZN4llvm17ConvertUTF8toWideENS_9StringRefERNSt7__cxx1112basic_stringIwSt11char_traitsIwESaIwEEE(ptr %0, i64 %1, ptr noundef nonnull align 8 dereferenceable(32) %2) local_unnamed_addr #0 {
  %4 = alloca ptr, align 8
  %5 = alloca ptr, align 8
  %6 = add i64 %1, 1
  tail call void @_ZNSt7__cxx1112basic_stringIwSt11char_traitsIwESaIwEE6resizeEm(ptr noundef nonnull align 8 dereferenceable(32) %2, i64 noundef %6) #13
  %7 = tail call noundef nonnull align 4 dereferenceable(4) ptr @_ZNSt7__cxx1112basic_stringIwSt11char_traitsIwESaIwEEixEm(ptr noundef nonnull align 8 dereferenceable(32) %2, i64 noundef 0) #13
  call void @llvm.lifetime.start.p0(i64 8, ptr nonnull %4)
  call void @llvm.lifetime.start.p0(i64 8, ptr nonnull %5)
  store ptr %0, ptr %4, align 8
  store ptr %7, ptr %5, align 8
  %8 = getelementptr inbounds i8, ptr %0, i64 %1
  %9 = getelementptr inbounds i32, ptr %7, i64 %1
  %10 = call noundef i32 @_ZN4llvm18ConvertUTF8toUTF32EPPKhS1_PPjS3_NS_15ConversionFlagsE(ptr noundef nonnull %4, ptr noundef %8, ptr noundef nonnull %5, ptr noundef nonnull %9, i32 noundef 0) #13
  %11 = icmp eq i32 %10, 0
  br i1 %11, label %13, label %12

12:                                               ; preds = %3
  call void @llvm.lifetime.end.p0(i64 8, ptr nonnull %4)
  call void @llvm.lifetime.end.p0(i64 8, ptr nonnull %5)
  call void @_ZNSt7__cxx1112basic_stringIwSt11char_traitsIwESaIwEE5clearEv(ptr noundef nonnull align 8 dereferenceable(32) %2) #13
  br label %_ZN4llvmL25ConvertUTF8toWideInternalINSt7__cxx1112basic_stringIwSt11char_traitsIwESaIwEEEEEbNS_9StringRefERT_.exit

13:                                               ; preds = %3
  %14 = load ptr, ptr %5, align 8
  call void @llvm.lifetime.end.p0(i64 8, ptr nonnull %4)
  call void @llvm.lifetime.end.p0(i64 8, ptr nonnull %5)
  %15 = call noundef nonnull align 4 dereferenceable(4) ptr @_ZNSt7__cxx1112basic_stringIwSt11char_traitsIwESaIwEEixEm(ptr noundef nonnull align 8 dereferenceable(32) %2, i64 noundef 0) #13
  %16 = ptrtoint ptr %14 to i64
  %17 = ptrtoint ptr %15 to i64
  %18 = sub i64 %16, %17
  %19 = ashr exact i64 %18, 2
  call void @_ZNSt7__cxx1112basic_stringIwSt11char_traitsIwESaIwEE6resizeEm(ptr noundef nonnull align 8 dereferenceable(32) %2, i64 noundef %19) #13
  br label %_ZN4llvmL25ConvertUTF8toWideInternalINSt7__cxx1112basic_stringIwSt11char_traitsIwESaIwEEEEEbNS_9StringRefERT_.exit

_ZN4llvmL25ConvertUTF8toWideInternalINSt7__cxx1112basic_stringIwSt11char_traitsIwESaIwEEEEEbNS_9StringRefERT_.exit: ; preds = %12, %13
  ret i1 %11
}